target datalayout = "e-m:e-p270:32:32-p271:32:32-p272:64:64-i64:64-i128:128-f80:128-n8:16:32:64-S128"
target triple = "x86_64-pc-linux-gnu"

%struct.re_registers = type { i32, i32, ptr, ptr }

; Function Attrs: nounwind sspstrong uwtable
define dso_local i32 @onig_region_set(ptr noundef %0, i32 noundef %1, i32 noundef %2, i32 noundef %3) #0 {
  %5 = alloca i32, align 4
  %6 = alloca ptr, align 8
  %7 = alloca i32, align 4
  %8 = alloca i32, align 4
  %9 = alloca i32, align 4
  %10 = alloca i32, align 4
  %11 = alloca i32, align 4
  store ptr %0, ptr %6, align 8, !tbaa !24
  store i32 %1, ptr %7, align 4, !tbaa !26
  store i32 %2, ptr %8, align 4, !tbaa !26
  store i32 %3, ptr %9, align 4, !tbaa !26
  %12 = load i32, ptr %7, align 4, !tbaa !26
  %13 = icmp slt i32 %12, 0
  br i1 %13, label %14, label %15

14:                                               ; preds = %4
  store i32 -30, ptr %5, align 4
  br label %51

15:                                               ; preds = %4
  %16 = load i32, ptr %7, align 4, !tbaa !26
  %17 = load ptr, ptr %6, align 8, !tbaa !24
  %18 = getelementptr inbounds nuw %struct.re_registers, ptr %17, i32 0, i32 0
  %19 = load i32, ptr %18, align 8, !tbaa !33
  %20 = icmp sge i32 %16, %19
  br i1 %20, label %21, label %34

21:                                               ; preds = %15
  call void @llvm.lifetime.start.p0(i64 4, ptr %10) #12
  %22 = load ptr, ptr %6, align 8, !tbaa !24
  %23 = load i32, ptr %7, align 4, !tbaa !26
  %24 = add i32 %23, 1
  %25 = call i32 @onig_region_resize(ptr noundef %22, i32 noundef %24)
  store i32 %25, ptr %10, align 4, !tbaa !26
  %26 = load i32, ptr %10, align 4, !tbaa !26
  %27 = icmp slt i32 %26, 0
  br i1 %27, label %28, label %30

28:                                               ; preds = %21
  %29 = load i32, ptr %10, align 4, !tbaa !26
  store i32 %29, ptr %5, align 4
  store i32 1, ptr %11, align 4
  br label %31

30:                                               ; preds = %21
  store i32 0, ptr %11, align 4
  br label %31

31:                                               ; preds = %30, %28
  call void @llvm.lifetime.end.p0(i64 4, ptr %10) #12
  %32 = load i32, ptr %11, align 4
  switch i32 %32, label %53 [
    i32 0, label %33
    i32 1, label %51
  ]

33:                                               ; preds = %31
  br label %34

34:                                               ; preds = %33, %15
  %35 = load i32, ptr %8, align 4, !tbaa !26
  %36 = sext i32 %35 to i64
  %37 = load ptr, ptr %6, align 8, !tbaa !24
  %38 = getelementptr inbounds nuw %struct.re_registers, ptr %37, i32 0, i32 2
  %39 = load ptr, ptr %38, align 8, !tbaa !30
  %40 = load i32, ptr %7, align 4, !tbaa !26
  %41 = sext i32 %40 to i64
  %42 = getelementptr i64, ptr %39, i64 %41
  store i64 %36, ptr %42, align 8, !tbaa !12
  %43 = load i32, ptr %9, align 4, !tbaa !26
  %44 = sext i32 %43 to i64
  %45 = load ptr, ptr %6, align 8, !tbaa !24
  %46 = getelementptr inbounds nuw %struct.re_registers, ptr %45, i32 0, i32 3
  %47 = load ptr, ptr %46, align 8, !tbaa !29
  %48 = load i32, ptr %7, align 4, !tbaa !26
  %49 = sext i32 %48 to i64
  %50 = getelementptr i64, ptr %47, i64 %49
  store i64 %44, ptr %50, align 8, !tbaa !12
  store i32 0, ptr %5, align 4
  br label %51

51:                                               ; preds = %34, %31, %14
  %52 = load i32, ptr %5, align 4
  ret i32 %52

53:                                               ; preds = %31
  unreachable
}