; Function Attrs: mustprogress nounwind sspstrong willreturn uwtable
define dso_local range(i32 -30, 1) i32 @onig_region_set(ptr noundef captures(none) %0, i32 noundef %1, i32 noundef %2, i32 noundef %3) local_unnamed_addr #3 {
  %5 = icmp slt i32 %1, 0
  br i1 %5, label %22, label %6

6:                                                ; preds = %4
  %7 = load i32, ptr %0, align 8, !tbaa !27
  %.not = icmp slt i32 %1, %7
  br i1 %.not, label %12, label %8

8:                                                ; preds = %6
  %9 = add nuw i32 %1, 1
  %10 = tail call i32 @onig_region_resize(ptr noundef nonnull %0, i32 noundef %9)
  %11 = icmp sgt i32 %10, -1
  br i1 %11, label %12, label %22

12:                                               ; preds = %8, %6
  %13 = sext i32 %2 to i64
  %14 = getelementptr inbounds nuw i8, ptr %0, i64 8
  %15 = load ptr, ptr %14, align 8, !tbaa !24
  %16 = zext nneg i32 %1 to i64
  %17 = getelementptr i64, ptr %15, i64 %16
  store i64 %13, ptr %17, align 8, !tbaa !19
  %18 = sext i32 %3 to i64
  %19 = getelementptr inbounds nuw i8, ptr %0, i64 16
  %20 = load ptr, ptr %19, align 8, !tbaa !23
  %21 = getelementptr i64, ptr %20, i64 %16
  store i64 %18, ptr %21, align 8, !tbaa !19
  br label %22

22:                                               ; preds = %8, %4, %12
  %.014 = phi i32 [ %10, %8 ], [ 0, %12 ], [ -30, %4 ]
  ret i32 %.014
}